target datalayout = "e-m:e-p270:32:32-p271:32:32-p272:64:64-i64:64-i128:128-f80:128-n8:16:32:64-S128"
target triple = "x86_64-pc-linux-gnu"

%struct.ssl_st = type { i32, i16, i16, ptr, ptr, ptr, ptr, ptr, i32, i32, ptr, ptr, i32, i32, ptr, ptr, ptr, ptr, ptr, ptr, ptr, ptr, i32, i32, [32 x i8], ptr, ptr, ptr, ptr, ptr, ptr, ptr, i64, %struct.crypto_ex_data_st, ptr, i32, i32, i32, i32, i16, ptr, i32, i64, ptr, ptr, ptr, ptr, ptr, ptr, i32, i32, ptr, ptr, i8, i8, i32 }
%struct.crypto_ex_data_st = type { ptr }
%struct.buf_mem_st = type { i64, ptr, i64 }
%struct.ssl_protocol_method_st = type { i8, ptr, ptr, ptr, ptr, ptr, ptr, ptr, ptr, ptr, ptr, ptr, i32, ptr, ptr }

; Function Attrs: nounwind uwtable
define hidden i32 @ssl3_output_cert_chain(ptr noundef %0) #0 {
  %2 = alloca i32, align 4
  %3 = alloca ptr, align 8
  %4 = alloca ptr, align 8
  %5 = alloca i64, align 8
  %6 = alloca i32, align 4
  store ptr %0, ptr %3, align 8, !tbaa !6
  call void @llvm.lifetime.start.p0(i64 8, ptr %4) #6
  call void @llvm.lifetime.start.p0(i64 8, ptr %5) #6
  %7 = load ptr, ptr %3, align 8, !tbaa !6
  %8 = getelementptr inbounds nuw %struct.ssl_st, ptr %7, i32 0, i32 3
  %9 = load ptr, ptr %8, align 8, !tbaa !46
  %10 = getelementptr inbounds nuw %struct.ssl_protocol_method_st, ptr %9, i32 0, i32 12
  %11 = load i32, ptr %10, align 8, !tbaa !47
  %12 = add i32 3, %11
  %13 = zext i32 %12 to i64
  store i64 %13, ptr %5, align 8, !tbaa !78
  %14 = load ptr, ptr %3, align 8, !tbaa !6
  %15 = call i32 @ssl_add_cert_chain(ptr noundef %14, ptr noundef %5)
  %16 = icmp ne i32 %15, 0
  br i1 %16, label %18, label %17

17:                                               ; preds = %1
  store i32 0, ptr %2, align 4
  store i32 1, ptr %6, align 4
  br label %69

18:                                               ; preds = %1
  %19 = load ptr, ptr %3, align 8, !tbaa !6
  %20 = getelementptr inbounds nuw %struct.ssl_st, ptr %19, i32 0, i32 3
  %21 = load ptr, ptr %20, align 8, !tbaa !46
  %22 = getelementptr inbounds nuw %struct.ssl_protocol_method_st, ptr %21, i32 0, i32 12
  %23 = load i32, ptr %22, align 8, !tbaa !47
  %24 = add i32 3, %23
  %25 = zext i32 %24 to i64
  %26 = load i64, ptr %5, align 8, !tbaa !78
  %27 = sub i64 %26, %25
  store i64 %27, ptr %5, align 8, !tbaa !78
  %28 = load ptr, ptr %3, align 8, !tbaa !6
  %29 = getelementptr inbounds nuw %struct.ssl_st, ptr %28, i32 0, i32 10
  %30 = load ptr, ptr %29, align 8, !tbaa !13
  %31 = getelementptr inbounds nuw %struct.buf_mem_st, ptr %30, i32 0, i32 1
  %32 = load ptr, ptr %31, align 8, !tbaa !38
  %33 = load ptr, ptr %3, align 8, !tbaa !6
  %34 = getelementptr inbounds nuw %struct.ssl_st, ptr %33, i32 0, i32 3
  %35 = load ptr, ptr %34, align 8, !tbaa !46
  %36 = getelementptr inbounds nuw %struct.ssl_protocol_method_st, ptr %35, i32 0, i32 12
  %37 = load i32, ptr %36, align 8, !tbaa !47
  %38 = zext i32 %37 to i64
  %39 = getelementptr inbounds nuw i8, ptr %32, i64 %38
  store ptr %39, ptr %4, align 8, !tbaa !49
  %40 = load i64, ptr %5, align 8, !tbaa !78
  %41 = lshr i64 %40, 16
  %42 = and i64 %41, 255
  %43 = trunc i64 %42 to i8
  %44 = load ptr, ptr %4, align 8, !tbaa !49
  %45 = getelementptr inbounds i8, ptr %44, i64 0
  store i8 %43, ptr %45, align 1, !tbaa !82
  %46 = load i64, ptr %5, align 8, !tbaa !78
  %47 = lshr i64 %46, 8
  %48 = and i64 %47, 255
  %49 = trunc i64 %48 to i8
  %50 = load ptr, ptr %4, align 8, !tbaa !49
  %51 = getelementptr inbounds i8, ptr %50, i64 1
  store i8 %49, ptr %51, align 1, !tbaa !82
  %52 = load i64, ptr %5, align 8, !tbaa !78
  %53 = and i64 %52, 255
  %54 = trunc i64 %53 to i8
  %55 = load ptr, ptr %4, align 8, !tbaa !49
  %56 = getelementptr inbounds i8, ptr %55, i64 2
  store i8 %54, ptr %56, align 1, !tbaa !82
  %57 = load ptr, ptr %4, align 8, !tbaa !49
  %58 = getelementptr inbounds i8, ptr %57, i64 3
  store ptr %58, ptr %4, align 8, !tbaa !49
  %59 = load i64, ptr %5, align 8, !tbaa !78
  %60 = add i64 %59, 3
  store i64 %60, ptr %5, align 8, !tbaa !78
  %61 = load ptr, ptr %3, align 8, !tbaa !6
  %62 = getelementptr inbounds nuw %struct.ssl_st, ptr %61, i32 0, i32 3
  %63 = load ptr, ptr %62, align 8, !tbaa !46
  %64 = getelementptr inbounds nuw %struct.ssl_protocol_method_st, ptr %63, i32 0, i32 13
  %65 = load ptr, ptr %64, align 8, !tbaa !75
  %66 = load ptr, ptr %3, align 8, !tbaa !6
  %67 = load i64, ptr %5, align 8, !tbaa !78
  %68 = call i32 %65(ptr noundef %66, i32 noundef 11, i64 noundef %67)
  store i32 %68, ptr %2, align 4
  store i32 1, ptr %6, align 4
  br label %69

69:                                               ; preds = %18, %17
  call void @llvm.lifetime.end.p0(i64 8, ptr %5) #6
  call void @llvm.lifetime.end.p0(i64 8, ptr %4) #6
  %70 = load i32, ptr %2, align 4
  ret i32 %70
}