; Function Attrs: nounwind uwtable
define hidden i32 @ssl3_output_cert_chain(ptr noundef %0) local_unnamed_addr #0 {
  %2 = alloca i64, align 8
  call void @llvm.lifetime.start.p0(i64 8, ptr nonnull %2) #7
  %3 = getelementptr inbounds nuw i8, ptr %0, i64 8
  %4 = load ptr, ptr %3, align 8, !tbaa !43
  %5 = getelementptr inbounds nuw i8, ptr %4, i64 96
  %6 = load i32, ptr %5, align 8, !tbaa !44
  %7 = add i32 %6, 3
  %8 = zext i32 %7 to i64
  store i64 %8, ptr %2, align 8, !tbaa !79
  %9 = call i32 @ssl_add_cert_chain(ptr noundef %0, ptr noundef nonnull %2) #7
  %.not = icmp eq i32 %9, 0
  br i1 %.not, label %39, label %10

10:                                               ; preds = %1
  %11 = load ptr, ptr %3, align 8, !tbaa !43
  %12 = getelementptr inbounds nuw i8, ptr %11, i64 96
  %13 = load i32, ptr %12, align 8, !tbaa !44
  %14 = add i32 %13, 3
  %15 = zext i32 %14 to i64
  %16 = load i64, ptr %2, align 8, !tbaa !79
  %17 = sub i64 %16, %15
  store i64 %17, ptr %2, align 8, !tbaa !79
  %18 = getelementptr inbounds nuw i8, ptr %0, i64 56
  %19 = load ptr, ptr %18, align 8, !tbaa !6
  %20 = getelementptr inbounds nuw i8, ptr %19, i64 8
  %21 = load ptr, ptr %20, align 8, !tbaa !35
  %22 = zext i32 %13 to i64
  %23 = getelementptr inbounds nuw i8, ptr %21, i64 %22
  %24 = lshr i64 %17, 16
  %25 = trunc i64 %24 to i8
  store i8 %25, ptr %23, align 1, !tbaa !78
  %26 = load i64, ptr %2, align 8, !tbaa !79
  %27 = lshr i64 %26, 8
  %28 = trunc i64 %27 to i8
  %29 = getelementptr inbounds nuw i8, ptr %23, i64 1
  store i8 %28, ptr %29, align 1, !tbaa !78
  %30 = load i64, ptr %2, align 8, !tbaa !79
  %31 = trunc i64 %30 to i8
  %32 = getelementptr inbounds nuw i8, ptr %23, i64 2
  store i8 %31, ptr %32, align 1, !tbaa !78
  %33 = load i64, ptr %2, align 8, !tbaa !79
  %34 = add i64 %33, 3
  store i64 %34, ptr %2, align 8, !tbaa !79
  %35 = load ptr, ptr %3, align 8, !tbaa !43
  %36 = getelementptr inbounds nuw i8, ptr %35, i64 104
  %37 = load ptr, ptr %36, align 8, !tbaa !71
  %38 = call i32 %37(ptr noundef nonnull %0, i32 noundef 11, i64 noundef %34) #7
  br label %39

39:                                               ; preds = %1, %10
  %.0 = phi i32 [ %38, %10 ], [ 0, %1 ]
  call void @llvm.lifetime.end.p0(i64 8, ptr nonnull %2) #7
  ret i32 %.0
}